; Function Attrs: nounwind sspstrong uwtable
define internal ptr @nogvl_eaccess(ptr noundef readonly captures(none) %0) #0 {
  %2 = load ptr, ptr %0, align 8, !tbaa !327
  %3 = getelementptr inbounds nuw i8, ptr %0, i64 8
  %4 = load i32, ptr %3, align 8, !tbaa !329
  %5 = tail call i32 @eaccess(ptr noundef %2, i32 noundef %4) #22
  %6 = sext i32 %5 to i64
  %7 = inttoptr i64 %6 to ptr
  ret ptr %7
}